target datalayout = "e-m:e-p270:32:32-p271:32:32-p272:64:64-i64:64-i128:128-f80:128-n8:16:32:64-S128"
target triple = "x86_64-unknown-linux-gnu"

%struct.RAMBlock = type { %struct.rcu_head, ptr, ptr, ptr, i64, i64, i64, ptr, i32, [256 x i8], %struct.anon.2, %struct.anon.3, i32, i64, i64, ptr, ptr, ptr, i8, i64 }
%struct.rcu_head = type { ptr, ptr }
%struct.anon.2 = type { ptr, ptr }
%struct.anon.3 = type { ptr }
%struct.timeval = type { i64, i64 }

@.str = private unnamed_addr constant [24 x i8] c"../qemu/migration/ram.c\00", align 1
@trace_events_enabled_count = external global i32, align 4
@message_with_timestamp = external global i8, align 1
@qemu_loglevel = external global i32, align 4
@.str.57 = private unnamed_addr constant [11 x i8] c"shift >= 6\00", align 1
@__PRETTY_FUNCTION__.migration_clear_memory_region_dirty_bitmap = private unnamed_addr constant [75 x i8] c"void migration_clear_memory_region_dirty_bitmap(RAMBlock *, unsigned long)\00", align 1
@_TRACE_MIGRATION_BITMAP_CLEAR_DIRTY_DSTATE = external global i16, align 2
@.str.58 = private unnamed_addr constant [83 x i8] c"%d@%zu.%06zu:migration_bitmap_clear_dirty rb %s start 0x%lx size 0x%lx page 0x%lx\0A\00", align 1
@.str.59 = private unnamed_addr constant [70 x i8] c"migration_bitmap_clear_dirty rb %s start 0x%lx size 0x%lx page 0x%lx\0A\00", align 1

; Function Attrs: nounwind sspstrong uwtable
define internal zeroext i1 @qemu_loglevel_mask(i32 noundef %mask) #0 {
entry:
  %mask.addr = alloca i32, align 4
  store i32 %mask, ptr %mask.addr, align 4
  %0 = load i32, ptr @qemu_loglevel, align 4
  %1 = load i32, ptr %mask.addr, align 4
  %and = and i32 %0, %1
  %cmp = icmp ne i32 %and, 0
  ret i1 %cmp
}

; Function Attrs: nounwind sspstrong uwtable
define internal void @_nocheck__trace_migration_bitmap_clear_dirty(ptr noundef %str, i64 noundef %start, i64 noundef %size, i64 noundef %page) #0 {
entry:
  %str.addr = alloca ptr, align 8
  %start.addr = alloca i64, align 8
  %size.addr = alloca i64, align 8
  %page.addr = alloca i64, align 8
  %_now = alloca %struct.timeval, align 8
  store ptr %str, ptr %str.addr, align 8
  store i64 %start, ptr %start.addr, align 8
  store i64 %size, ptr %size.addr, align 8
  store i64 %page, ptr %page.addr, align 8
  %0 = load i32, ptr @trace_events_enabled_count, align 4
  %tobool = icmp ne i32 %0, 0
  %lnot = xor i1 %tobool, true
  %lnot1 = xor i1 %lnot, true
  %lnot.ext = zext i1 %lnot1 to i32
  %conv = sext i32 %lnot.ext to i64
  %tobool2 = icmp ne i64 %conv, 0
  br i1 %tobool2, label %land.lhs.true, label %if.end11

land.lhs.true:                                    ; preds = %entry
  %1 = load i16, ptr @_TRACE_MIGRATION_BITMAP_CLEAR_DIRTY_DSTATE, align 2
  %conv3 = zext i16 %1 to i32
  %tobool4 = icmp ne i32 %conv3, 0
  br i1 %tobool4, label %land.lhs.true5, label %if.end11

land.lhs.true5:                                   ; preds = %land.lhs.true
  %call = call zeroext i1 @qemu_loglevel_mask(i32 noundef 32768)
  br i1 %call, label %if.then, label %if.end11

if.then:                                          ; preds = %land.lhs.true5
  %2 = load i8, ptr @message_with_timestamp, align 1
  %tobool7 = trunc i8 %2 to i1
  br i1 %tobool7, label %if.then8, label %if.else

if.then8:                                         ; preds = %if.then
  %call9 = call i32 @gettimeofday(ptr noundef %_now, ptr noundef null) #13
  %call10 = call i32 @qemu_get_thread_id()
  %tv_sec = getelementptr inbounds %struct.timeval, ptr %_now, i32 0, i32 0
  %3 = load i64, ptr %tv_sec, align 8
  %tv_usec = getelementptr inbounds %struct.timeval, ptr %_now, i32 0, i32 1
  %4 = load i64, ptr %tv_usec, align 8
  %5 = load ptr, ptr %str.addr, align 8
  %6 = load i64, ptr %start.addr, align 8
  %7 = load i64, ptr %size.addr, align 8
  %8 = load i64, ptr %page.addr, align 8
  call void (ptr, ...) @qemu_log(ptr noundef @.str.58, i32 noundef %call10, i64 noundef %3, i64 noundef %4, ptr noundef %5, i64 noundef %6, i64 noundef %7, i64 noundef %8)
  br label %if.end

if.else:                                          ; preds = %if.then
  %9 = load ptr, ptr %str.addr, align 8
  %10 = load i64, ptr %start.addr, align 8
  %11 = load i64, ptr %size.addr, align 8
  %12 = load i64, ptr %page.addr, align 8
  call void (ptr, ...) @qemu_log(ptr noundef @.str.59, ptr noundef %9, i64 noundef %10, i64 noundef %11, i64 noundef %12)
  br label %if.end

if.end:                                           ; preds = %if.else, %if.then8
  br label %if.end11

if.end11:                                         ; preds = %if.end, %land.lhs.true5, %land.lhs.true, %entry
  ret void
}

; Function Attrs: nounwind sspstrong uwtable
define internal void @trace_migration_bitmap_clear_dirty(ptr noundef %str, i64 noundef %start, i64 noundef %size, i64 noundef %page) #0 {
entry:
  %str.addr = alloca ptr, align 8
  %start.addr = alloca i64, align 8
  %size.addr = alloca i64, align 8
  %page.addr = alloca i64, align 8
  store ptr %str, ptr %str.addr, align 8
  store i64 %start, ptr %start.addr, align 8
  store i64 %size, ptr %size.addr, align 8
  store i64 %page, ptr %page.addr, align 8
  %0 = load ptr, ptr %str.addr, align 8
  %1 = load i64, ptr %start.addr, align 8
  %2 = load i64, ptr %size.addr, align 8
  %3 = load i64, ptr %page.addr, align 8
  call void @_nocheck__trace_migration_bitmap_clear_dirty(ptr noundef %0, i64 noundef %1, i64 noundef %2, i64 noundef %3)
  ret void
}

; Function Attrs: nounwind sspstrong uwtable
define internal zeroext i1 @clear_bmap_test_and_clear(ptr noundef %rb, i64 noundef %page) #0 {
entry:
  %rb.addr = alloca ptr, align 8
  %page.addr = alloca i64, align 8
  %shift = alloca i8, align 1
  store ptr %rb, ptr %rb.addr, align 8
  store i64 %page, ptr %page.addr, align 8
  %0 = load ptr, ptr %rb.addr, align 8
  %clear_bmap_shift = getelementptr inbounds %struct.RAMBlock, ptr %0, i32 0, i32 18
  %1 = load i8, ptr %clear_bmap_shift, align 8
  store i8 %1, ptr %shift, align 1
  %2 = load ptr, ptr %rb.addr, align 8
  %clear_bmap = getelementptr inbounds %struct.RAMBlock, ptr %2, i32 0, i32 17
  %3 = load ptr, ptr %clear_bmap, align 8
  %4 = load i64, ptr %page.addr, align 8
  %5 = load i8, ptr %shift, align 1
  %conv = zext i8 %5 to i32
  %sh_prom = zext i32 %conv to i64
  %shr = lshr i64 %4, %sh_prom
  %call = call zeroext i1 @bitmap_test_and_clear(ptr noundef %3, i64 noundef %shr, i64 noundef 1)
  ret i1 %call
}

; Function Attrs: nounwind sspstrong uwtable
define internal void @migration_clear_memory_region_dirty_bitmap(ptr noundef %rb, i64 noundef %page) #0 {
entry:
  %rb.addr = alloca ptr, align 8
  %page.addr = alloca i64, align 8
  %shift = alloca i8, align 1
  %size = alloca i64, align 8
  %start = alloca i64, align 8
  store ptr %rb, ptr %rb.addr, align 8
  store i64 %page, ptr %page.addr, align 8
  %0 = load ptr, ptr %rb.addr, align 8
  %clear_bmap = getelementptr inbounds %struct.RAMBlock, ptr %0, i32 0, i32 17
  %1 = load ptr, ptr %clear_bmap, align 8
  %tobool = icmp ne ptr %1, null
  br i1 %tobool, label %lor.lhs.false, label %if.then

lor.lhs.false:                                    ; preds = %entry
  %2 = load ptr, ptr %rb.addr, align 8
  %3 = load i64, ptr %page.addr, align 8
  %call = call zeroext i1 @clear_bmap_test_and_clear(ptr noundef %2, i64 noundef %3)
  br i1 %call, label %if.end, label %if.then

if.then:                                          ; preds = %lor.lhs.false, %entry
  br label %return

if.end:                                           ; preds = %lor.lhs.false
  %4 = load ptr, ptr %rb.addr, align 8
  %clear_bmap_shift = getelementptr inbounds %struct.RAMBlock, ptr %4, i32 0, i32 18
  %5 = load i8, ptr %clear_bmap_shift, align 8
  store i8 %5, ptr %shift, align 1
  %6 = load i8, ptr %shift, align 1
  %conv = zext i8 %6 to i32
  %cmp = icmp sge i32 %conv, 6
  br i1 %cmp, label %if.then2, label %if.else

if.then2:                                         ; preds = %if.end
  br label %if.end3

if.else:                                          ; preds = %if.end
  call void @__assert_fail(ptr noundef @.str.57, ptr noundef @.str, i32 noundef 737, ptr noundef @__PRETTY_FUNCTION__.migration_clear_memory_region_dirty_bitmap) #14
  unreachable

if.end3:                                          ; preds = %if.then2
  %7 = load i8, ptr %shift, align 1
  %conv4 = zext i8 %7 to i32
  %add = add i32 12, %conv4
  %sh_prom = zext i32 %add to i64
  %shl = shl i64 1, %sh_prom
  store i64 %shl, ptr %size, align 8
  %8 = load i64, ptr %page.addr, align 8
  %shl5 = shl i64 %8, 12
  %9 = load i64, ptr %size, align 8
  %div = udiv i64 %shl5, %9
  %10 = load i64, ptr %size, align 8
  %mul = mul i64 %div, %10
  store i64 %mul, ptr %start, align 8
  %11 = load ptr, ptr %rb.addr, align 8
  %idstr = getelementptr inbounds %struct.RAMBlock, ptr %11, i32 0, i32 9
  %arraydecay = getelementptr inbounds [256 x i8], ptr %idstr, i64 0, i64 0
  %12 = load i64, ptr %start, align 8
  %13 = load i64, ptr %size, align 8
  %14 = load i64, ptr %page.addr, align 8
  call void @trace_migration_bitmap_clear_dirty(ptr noundef %arraydecay, i64 noundef %12, i64 noundef %13, i64 noundef %14)
  %15 = load ptr, ptr %rb.addr, align 8
  %mr = getelementptr inbounds %struct.RAMBlock, ptr %15, i32 0, i32 1
  %16 = load ptr, ptr %mr, align 8
  %17 = load i64, ptr %start, align 8
  %18 = load i64, ptr %size, align 8
  call void @memory_region_clear_dirty_bitmap(ptr noundef %16, i64 noundef %17, i64 noundef %18)
  br label %return

return:                                           ; preds = %if.end3, %if.then
  ret void
}