; Function Attrs: nounwind sspstrong uwtable
define internal fastcc void @migration_clear_memory_region_dirty_bitmap(ptr noundef %rb, i64 noundef %page) unnamed_addr #0 {
entry:
  %_now.i.i = alloca %struct.timeval, align 8
  %clear_bmap = getelementptr inbounds nuw i8, ptr %rb, i64 400
  %0 = load ptr, ptr %clear_bmap, align 8
  %tobool.not = icmp eq ptr %0, null
  br i1 %tobool.not, label %return, label %lor.lhs.false

lor.lhs.false:                                    ; preds = %entry
  %1 = getelementptr i8, ptr %rb, i64 408
  %rb.val13 = load i8, ptr %1, align 8
  %sh_prom.i = zext nneg i8 %rb.val13 to i64
  %shr.i = lshr i64 %page, %sh_prom.i
  %call.i = tail call zeroext i1 @bitmap_test_and_clear(ptr noundef nonnull %0, i64 noundef %shr.i, i64 noundef 1) #18
  br i1 %call.i, label %if.end, label %return

if.end:                                           ; preds = %lor.lhs.false
  %2 = load i8, ptr %1, align 8
  %cmp = icmp ugt i8 %2, 5
  br i1 %cmp, label %if.end3, label %if.else

if.else:                                          ; preds = %if.end
  tail call void @__assert_fail(ptr noundef nonnull @.str.57, ptr noundef nonnull @.str, i32 noundef 737, ptr noundef nonnull @__PRETTY_FUNCTION__.migration_clear_memory_region_dirty_bitmap) #19
  unreachable

if.end3:                                          ; preds = %if.end
  %conv = zext nneg i8 %2 to i64
  %shl = shl nuw i64 4096, %conv
  %shl5 = shl i64 %page, 12
  %3 = shl i64 -4096, %conv
  %mul = and i64 %3, %shl5
  %idstr = getelementptr inbounds nuw i8, ptr %rb, i64 76
  call void @llvm.lifetime.start.p0(i64 16, ptr nonnull %_now.i.i)
  %4 = load i32, ptr @trace_events_enabled_count, align 4
  %tobool.i.i = icmp ne i32 %4, 0
  %5 = load i16, ptr @_TRACE_MIGRATION_BITMAP_CLEAR_DIRTY_DSTATE, align 2
  %tobool4.i.i = icmp ne i16 %5, 0
  %or.cond.i.i = select i1 %tobool.i.i, i1 %tobool4.i.i, i1 false
  br i1 %or.cond.i.i, label %land.lhs.true5.i.i, label %trace_migration_bitmap_clear_dirty.exit

land.lhs.true5.i.i:                               ; preds = %if.end3
  %6 = load i32, ptr @qemu_loglevel, align 4
  %and.i.i.i = and i32 %6, 32768
  %cmp.i.not.i.i = icmp eq i32 %and.i.i.i, 0
  br i1 %cmp.i.not.i.i, label %trace_migration_bitmap_clear_dirty.exit, label %if.then.i.i

if.then.i.i:                                      ; preds = %land.lhs.true5.i.i
  %7 = load i8, ptr @message_with_timestamp, align 1
  %tobool7.i.i = trunc i8 %7 to i1
  br i1 %tobool7.i.i, label %if.then8.i.i, label %if.else.i.i

if.then8.i.i:                                     ; preds = %if.then.i.i
  %call9.i.i = call i32 @gettimeofday(ptr noundef nonnull %_now.i.i, ptr noundef null) #18
  %call10.i.i = tail call i32 @qemu_get_thread_id() #18
  %8 = load i64, ptr %_now.i.i, align 8
  %tv_usec.i.i = getelementptr inbounds nuw i8, ptr %_now.i.i, i64 8
  %9 = load i64, ptr %tv_usec.i.i, align 8
  tail call void (ptr, ...) @qemu_log(ptr noundef nonnull @.str.58, i32 noundef %call10.i.i, i64 noundef %8, i64 noundef %9, ptr noundef nonnull %idstr, i64 noundef %mul, i64 noundef %shl, i64 noundef %page) #18
  br label %trace_migration_bitmap_clear_dirty.exit

if.else.i.i:                                      ; preds = %if.then.i.i
  tail call void (ptr, ...) @qemu_log(ptr noundef nonnull @.str.59, ptr noundef nonnull %idstr, i64 noundef %mul, i64 noundef %shl, i64 noundef %page) #18
  br label %trace_migration_bitmap_clear_dirty.exit

trace_migration_bitmap_clear_dirty.exit:          ; preds = %if.end3, %land.lhs.true5.i.i, %if.then8.i.i, %if.else.i.i
  call void @llvm.lifetime.end.p0(i64 16, ptr nonnull %_now.i.i)
  %mr = getelementptr inbounds nuw i8, ptr %rb, i64 16
  %10 = load ptr, ptr %mr, align 8
  tail call void @memory_region_clear_dirty_bitmap(ptr noundef %10, i64 noundef %mul, i64 noundef %shl) #18
  br label %return

return:                                           ; preds = %entry, %lor.lhs.false, %trace_migration_bitmap_clear_dirty.exit
  ret void
}